; ModuleID = 'source-C-CXX/52/199.c'
source_filename = "source-C-CXX/52/199.c"
target datalayout = "e-m:e-p270:32:32-p271:32:32-p272:64:64-i64:64-f80:128-n8:16:32:64-S128"
target triple = "x86_64-pc-linux-gnu"

@.str = private unnamed_addr constant [5 x i8] c"%d%d\00", align 1
@.str.1 = private unnamed_addr constant [3 x i8] c"%d\00", align 1
@.str.2 = private unnamed_addr constant [4 x i8] c",%d\00", align 1

; Function Attrs: nofree nounwind sspstrong uwtable
define dso_local void @main() local_unnamed_addr #0 {
  %1 = alloca i32, align 4
  %2 = alloca i32, align 4
  %3 = alloca [301 x i32], align 16
  %4 = bitcast i32* %1 to i8*
  call void @llvm.lifetime.start.p0i8(i64 4, i8* nonnull %4) #4
  %5 = bitcast i32* %2 to i8*
  call void @llvm.lifetime.start.p0i8(i64 4, i8* nonnull %5) #4
  %6 = bitcast [301 x i32]* %3 to i8*
  call void @llvm.lifetime.start.p0i8(i64 1204, i8* nonnull %6) #4
  %7 = getelementptr inbounds [301 x i32], [301 x i32]* %3, i64 0, i64 1
  %8 = call i32 (i8*, ...) @__isoc99_scanf(i8* getelementptr inbounds ([5 x i8], [5 x i8]* @.str, i64 0, i64 0), i32* nonnull %1, i32* nonnull %7)
  %9 = load i32, i32* %7, align 4, !tbaa !5
  %10 = call i32 (i8*, ...) @printf(i8* nonnull dereferenceable(1) getelementptr inbounds ([3 x i8], [3 x i8]* @.str.1, i64 0, i64 0), i32 %9)
  %11 = load i32, i32* %1, align 4, !tbaa !5
  %12 = icmp slt i32 %11, 2
  br i1 %12, label %39, label %13

13:                                               ; preds = %0, %34
  %14 = phi i32 [ %35, %34 ], [ 1, %0 ]
  %15 = phi i32 [ %36, %34 ], [ 2, %0 ]
  %16 = call i32 (i8*, ...) @__isoc99_scanf(i8* getelementptr inbounds ([3 x i8], [3 x i8]* @.str.1, i64 0, i64 0), i32* nonnull %2)
  %17 = load i32, i32* %2, align 4
  %18 = icmp slt i32 %14, 1
  %19 = add i32 %14, 1
  br i1 %18, label %30, label %20

20:                                               ; preds = %13
  %21 = zext i32 %19 to i64
  br label %25

22:                                               ; preds = %25
  %23 = add nuw nsw i64 %26, 1
  %24 = icmp eq i64 %23, %21
  br i1 %24, label %30, label %25, !llvm.loop !9

25:                                               ; preds = %20, %22
  %26 = phi i64 [ 1, %20 ], [ %23, %22 ]
  %27 = getelementptr inbounds [301 x i32], [301 x i32]* %3, i64 0, i64 %26
  %28 = load i32, i32* %27, align 4, !tbaa !5
  %29 = icmp eq i32 %28, %17
  br i1 %29, label %34, label %22

30:                                               ; preds = %22, %13
  %31 = sext i32 %19 to i64
  %32 = getelementptr inbounds [301 x i32], [301 x i32]* %3, i64 0, i64 %31
  store i32 %17, i32* %32, align 4, !tbaa !5
  %33 = call i32 (i8*, ...) @printf(i8* nonnull dereferenceable(1) getelementptr inbounds ([4 x i8], [4 x i8]* @.str.2, i64 0, i64 0), i32 %17)
  br label %34

34:                                               ; preds = %25, %30
  %35 = phi i32 [ %19, %30 ], [ %14, %25 ]
  %36 = add nuw nsw i32 %15, 1
  %37 = load i32, i32* %1, align 4, !tbaa !5
  %38 = icmp slt i32 %15, %37
  br i1 %38, label %13, label %39, !llvm.loop !11

39:                                               ; preds = %34, %0
  %40 = call i32 @putchar(i32 10)
  call void @llvm.lifetime.end.p0i8(i64 1204, i8* nonnull %6) #4
  call void @llvm.lifetime.end.p0i8(i64 4, i8* nonnull %5) #4
  call void @llvm.lifetime.end.p0i8(i64 4, i8* nonnull %4) #4
  ret void
}

; Function Attrs: argmemonly mustprogress nofree nosync nounwind willreturn
declare void @llvm.lifetime.start.p0i8(i64 immarg, i8* nocapture) #1

; Function Attrs: nofree nounwind
declare noundef i32 @__isoc99_scanf(i8* nocapture noundef readonly, ...) local_unnamed_addr #2

; Function Attrs: nofree nounwind
declare noundef i32 @printf(i8* nocapture noundef readonly, ...) local_unnamed_addr #2

; Function Attrs: argmemonly mustprogress nofree nosync nounwind willreturn
declare void @llvm.lifetime.end.p0i8(i64 immarg, i8* nocapture) #1

; Function Attrs: nofree nounwind
declare noundef i32 @putchar(i32 noundef) local_unnamed_addr #3


!llvm.module.flags = !{!0, !1, !2, !3}
!llvm.ident = !{!4}

!0 = !{i32 1, !"wchar_size", i32 4}
!1 = !{i32 7, !"PIC Level", i32 2}
!2 = !{i32 7, !"PIE Level", i32 2}
!3 = !{i32 7, !"uwtable", i32 1}
!4 = !{!"clang version 13.0.0"}
!5 = !{!6, !6, i64 0}
!6 = !{!"int", !7, i64 0}
!7 = !{!"omnipotent char", !8, i64 0}
!8 = !{!"Simple C/C++ TBAA"}
!9 = distinct !{!9, !10}
!10 = !{!"llvm.loop.mustprogress"}
!11 = distinct !{!11, !10}
